(dp0
VXHTML
p1
(dp2
Vcallbackdesaster
p3
(dp4
S'captionName'
p5
V
p6
sS'url'
p7
ccopy_reg
_reconstructor
p8
(cplasTeX.Renderers
URL
p9
c__builtin__
unicode
p10
Vsect0011.html#callbackdesaster
p11
tp12
Rp13
sS'id'
p14
Vcallbackdesaster
p15
sS'title'
p16
VCallback Disaster
p17
sss.